; Function Attrs: mustprogress uwtable
define hidden void @_ZN1q6ematch20ensure_ground_enodesEP4expr(ptr noundef nonnull align 8 dereferenceable(2680) %0, ptr noundef %1) local_unnamed_addr #3 align 2 {
  %3 = getelementptr inbounds nuw i8, ptr %0, i64 2520
  tail call void @_ZN1q3mam15ground_subtermsEP4exprR10ptr_vectorI3appE(ptr noundef %1, ptr noundef nonnull align 8 dereferenceable(8) %3)
  %4 = load ptr, ptr %3, align 8, !tbaa !562
  %5 = icmp eq ptr %4, null
  br i1 %5, label %._crit_edge, label %_ZN6vectorIP3appLb0EjE3endEv.exit

_ZN6vectorIP3appLb0EjE3endEv.exit:                ; preds = %2
  %6 = getelementptr inbounds i8, ptr %4, i64 -4
  %7 = load i32, ptr %6, align 4, !tbaa !586
  %8 = zext i32 %7 to i64
  %9 = getelementptr inbounds nuw ptr, ptr %4, i64 %8
  %.not9 = icmp eq i32 %7, 0
  br i1 %.not9, label %._crit_edge, label %.lr.ph

.lr.ph:                                           ; preds = %_ZN6vectorIP3appLb0EjE3endEv.exit
  %10 = getelementptr inbounds nuw i8, ptr %0, i64 8
  br label %11

._crit_edge:                                      ; preds = %11, %2, %_ZN6vectorIP3appLb0EjE3endEv.exit
  ret void

11:                                               ; preds = %.lr.ph, %11
  %.010 = phi ptr [ %4, %.lr.ph ], [ %15, %11 ]
  %12 = load ptr, ptr %.010, align 8, !tbaa !587
  %13 = load ptr, ptr %10, align 8, !tbaa !616
  %14 = tail call noundef ptr @_ZN3euf13th_euf_solver13e_internalizeEP4expr(ptr noundef nonnull align 8 dereferenceable(108) %13, ptr noundef %12)
  %15 = getelementptr inbounds nuw i8, ptr %.010, i64 8
  %.not = icmp eq ptr %15, %9
  br i1 %.not, label %._crit_edge, label %11
}